; Function Attrs: mustprogress uwtable
define hidden noundef ptr @_Z18mk_simplify_tacticR11ast_managerRK10params_ref(ptr noundef nonnull align 8 dereferenceable(976) %0, ptr noundef nonnull align 8 dereferenceable(8) %1) local_unnamed_addr #3 personality ptr @__gxx_personality_v0 {
  %3 = tail call noalias noundef ptr @_ZN6memory8allocateEm(i64 noundef 32)
  %4 = getelementptr inbounds nuw i8, ptr %3, i64 8
  store i32 0, ptr %4, align 8, !tbaa !3
  store ptr getelementptr inbounds nuw inrange(-16, 192) (i8, ptr @_ZTV15simplify_tactic, i64 16), ptr %3, align 8, !tbaa !9
  %5 = getelementptr inbounds nuw i8, ptr %3, i64 12
  store i8 1, ptr %5, align 4, !tbaa !11
  %6 = getelementptr inbounds nuw i8, ptr %3, i64 24
  tail call void @_ZN10params_refC1ERKS_(ptr noundef nonnull align 8 dereferenceable(8) %6, ptr noundef nonnull align 8 dereferenceable(8) %1)
  %7 = invoke noalias noundef ptr @_ZN6memory8allocateEm(i64 noundef 32)
          to label %8 unwind label %10

8:                                                ; preds = %2
  store ptr %0, ptr %7, align 8, !tbaa !18
  %9 = getelementptr inbounds nuw i8, ptr %7, i64 8
  invoke void @_ZN11th_rewriterC1ER11ast_managerRK10params_ref(ptr noundef nonnull align 8 dereferenceable(16) %9, ptr noundef nonnull align 8 dereferenceable(976) %0, ptr noundef nonnull align 8 dereferenceable(8) %1)
          to label %_ZN15simplify_tacticC2ER11ast_managerRK10params_ref.exit unwind label %10

10:                                               ; preds = %8, %2
  %11 = landingpad { ptr, i32 }
          cleanup
  tail call void @_ZN10params_refD1Ev(ptr noundef nonnull align 8 dereferenceable(8) %6) #19
  resume { ptr, i32 } %11

_ZN15simplify_tacticC2ER11ast_managerRK10params_ref.exit: ; preds = %8
  %12 = getelementptr inbounds nuw i8, ptr %7, i64 24
  store i32 0, ptr %12, align 8, !tbaa !20
  %13 = getelementptr inbounds nuw i8, ptr %3, i64 16
  store ptr %7, ptr %13, align 8, !tbaa !24
  %14 = tail call noundef ptr @_Z5cleanP6tactic(ptr noundef nonnull %3)
  ret ptr %14
}